target datalayout = "e-m:e-p270:32:32-p271:32:32-p272:64:64-i64:64-i128:128-f80:128-n8:16:32:64-S128"
target triple = "x86_64-pc-linux-gnu"

%"class.std::locale" = type { ptr }
%"class.boost::locale::detail::format_parser" = type { ptr, %"class.boost::locale::hold_ptr" }
%"class.boost::locale::hold_ptr" = type { ptr }
%"struct.boost::locale::detail::format_parser::data" = type { i32, i64, i32, %"class.boost::locale::ios_info", %"class.std::locale", i8, ptr, ptr }
%"class.boost::locale::ios_info" = type { i64, i32, %"class.std::__cxx11::basic_string", %"class.boost::locale::detail::any_string" }
%"class.std::__cxx11::basic_string" = type { %"struct.std::__cxx11::basic_string<char>::_Alloc_hider", i64, %union.anon }
%"struct.std::__cxx11::basic_string<char>::_Alloc_hider" = type { ptr }
%union.anon = type { i64, [8 x i8] }
%"class.boost::locale::detail::any_string" = type { %"class.std::unique_ptr" }
%"class.std::unique_ptr" = type { %"struct.std::__uniq_ptr_data" }
%"struct.std::__uniq_ptr_data" = type { %"class.std::__uniq_ptr_impl" }
%"class.std::__uniq_ptr_impl" = type { %"class.std::tuple" }
%"class.std::tuple" = type { %"struct.std::_Tuple_impl" }
%"struct.std::_Tuple_impl" = type { %"struct.std::_Head_base.1" }
%"struct.std::_Head_base.1" = type { ptr }

; Function Attrs: inlinehint mustprogress nounwind uwtable
define linkonce_odr hidden void @_ZN5boost6locale6detail13format_parser4dataD2Ev(ptr noundef nonnull align 8 dereferenceable(112) %0) unnamed_addr #10 comdat align 2 {
  %2 = alloca ptr, align 8
  store ptr %0, ptr %2, align 8, !tbaa !3
  %3 = load ptr, ptr %2, align 8
  %4 = getelementptr inbounds nuw %"struct.boost::locale::detail::format_parser::data", ptr %3, i32 0, i32 4
  call void @_ZNSt6localeD1Ev(ptr noundef nonnull align 8 dereferenceable(8) %4) #3
  %5 = getelementptr inbounds nuw %"struct.boost::locale::detail::format_parser::data", ptr %3, i32 0, i32 3
  call void @_ZN5boost6locale8ios_infoD1Ev(ptr noundef nonnull align 8 dereferenceable(56) %5) #3
  ret void
}

; Function Attrs: mustprogress nounwind uwtable
define linkonce_odr hidden void @_ZN5boost6locale8hold_ptrINS0_6detail13format_parser4dataEED2Ev(ptr noundef nonnull align 8 dereferenceable(8) %0) unnamed_addr #8 comdat align 2 {
  %2 = alloca ptr, align 8
  store ptr %0, ptr %2, align 8, !tbaa !3
  %3 = load ptr, ptr %2, align 8
  %4 = getelementptr inbounds nuw %"class.boost::locale::hold_ptr", ptr %3, i32 0, i32 0
  %5 = load ptr, ptr %4, align 8, !tbaa !29
  %6 = icmp eq ptr %5, null
  br i1 %6, label %8, label %7

7:                                                ; preds = %1
  call void @_ZN5boost6locale6detail13format_parser4dataD2Ev(ptr noundef nonnull align 8 dereferenceable(112) %5) #3
  call void @_ZdlPvm(ptr noundef %5, i64 noundef 112) #18
  br label %8

8:                                                ; preds = %7, %1
  ret void
}

; Function Attrs: mustprogress nounwind uwtable
define void @_ZN5boost6locale6detail13format_parserD2Ev(ptr noundef nonnull align 8 dereferenceable(16) %0) unnamed_addr #8 align 2 {
  %2 = alloca ptr, align 8
  store ptr %0, ptr %2, align 8, !tbaa !3
  %3 = load ptr, ptr %2, align 8
  %4 = getelementptr inbounds nuw %"class.boost::locale::detail::format_parser", ptr %3, i32 0, i32 1
  call void @_ZN5boost6locale8hold_ptrINS0_6detail13format_parser4dataEED2Ev(ptr noundef nonnull align 8 dereferenceable(8) %4) #3
  ret void
}