; Function Attrs: mustprogress nounwind uwtable
define void @_ZN5boost6locale6detail13format_parserD2Ev(ptr nocapture noundef nonnull readonly align 8 dereferenceable(16) %0) unnamed_addr #7 align 2 {
  %2 = getelementptr inbounds nuw i8, ptr %0, i64 8
  %3 = load ptr, ptr %2, align 8, !tbaa !7
  %4 = icmp eq ptr %3, null
  br i1 %4, label %_ZN5boost6locale8hold_ptrINS0_6detail13format_parser4dataEED2Ev.exit, label %5

5:                                                ; preds = %1
  %6 = getelementptr inbounds nuw i8, ptr %3, i64 80
  tail call void @_ZNSt6localeD1Ev(ptr noundef nonnull align 8 dereferenceable(8) %6) #20
  %7 = getelementptr inbounds nuw i8, ptr %3, i64 24
  tail call void @_ZN5boost6locale8ios_infoD1Ev(ptr noundef nonnull align 8 dereferenceable(56) %7) #20
  tail call void @_ZdlPvm(ptr noundef nonnull %3, i64 noundef 112) #21
  br label %_ZN5boost6locale8hold_ptrINS0_6detail13format_parser4dataEED2Ev.exit

_ZN5boost6locale8hold_ptrINS0_6detail13format_parser4dataEED2Ev.exit: ; preds = %1, %5
  ret void
}